target datalayout = "e-m:e-p270:32:32-p271:32:32-p272:64:64-i64:64-i128:128-f80:128-n8:16:32:64-S128"
target triple = "x86_64-pc-linux-gnu"

%struct.uv_loop_s = type { ptr, i32, [2 x ptr], %union.anon.1, ptr, i32, i64, i32, [2 x ptr], [2 x ptr], ptr, i32, i32, [2 x ptr], %union.pthread_mutex_t, %struct.uv_async_s, %union.pthread_rwlock_t, ptr, [2 x ptr], [2 x ptr], [2 x ptr], [2 x ptr], [2 x ptr], ptr, %struct.uv__io_s, i32, %struct.anon, i64, i64, [2 x i32], %struct.uv__io_s, %struct.uv_signal_s, i32, %struct.uv__io_s, ptr, i32 }
%union.anon.1 = type { ptr }
%union.pthread_mutex_t = type { %struct.__pthread_mutex_s }
%struct.__pthread_mutex_s = type { i32, i32, i32, i32, i32, i16, i16, %struct.__pthread_internal_list }
%struct.__pthread_internal_list = type { ptr, ptr }
%struct.uv_async_s = type { ptr, ptr, i32, ptr, [2 x ptr], %union.anon.2, ptr, i32, ptr, [2 x ptr], i32 }
%union.anon.2 = type { [4 x ptr] }
%union.pthread_rwlock_t = type { %struct.__pthread_rwlock_arch_t }
%struct.__pthread_rwlock_arch_t = type { i32, i32, i32, i32, i32, i32, i32, i32, i8, [7 x i8], i64, i32 }
%struct.anon = type { ptr, i32 }
%struct.uv_signal_s = type { ptr, ptr, i32, ptr, [2 x ptr], %union.anon.3, ptr, i32, ptr, i32, %struct.anon.4, i32, i32 }
%union.anon.3 = type { [4 x ptr] }
%struct.anon.4 = type { ptr, ptr, ptr, i32 }
%struct.uv__io_s = type { ptr, [2 x ptr], [2 x ptr], i32, i32, i32 }
%struct.uv_timer_s = type { ptr, ptr, i32, ptr, [2 x ptr], %union.anon, ptr, i32, ptr, [3 x ptr], i64, i64, i64 }
%union.anon = type { [4 x ptr] }
%struct.heap = type { ptr, i32 }

; Function Attrs: nounwind uwtable
define internal ptr @heap_min(ptr noundef %0) #0 {
  %2 = alloca ptr, align 8
  store ptr %0, ptr %2, align 8
  %3 = load ptr, ptr %2, align 8
  %4 = getelementptr inbounds %struct.heap, ptr %3, i32 0, i32 0
  %5 = load ptr, ptr %4, align 8
  ret ptr %5
}

; Function Attrs: nounwind uwtable
define internal ptr @timer_heap(ptr noundef %0) #0 {
  %2 = alloca ptr, align 8
  store ptr %0, ptr %2, align 8
  %3 = load ptr, ptr %2, align 8
  %4 = getelementptr inbounds %struct.uv_loop_s, ptr %3, i32 0, i32 26
  ret ptr %4
}

; Function Attrs: nounwind uwtable
define dso_local i32 @uv__next_timeout(ptr noundef %0) #0 {
  %2 = alloca i32, align 4
  %3 = alloca ptr, align 8
  %4 = alloca ptr, align 8
  %5 = alloca ptr, align 8
  %6 = alloca i64, align 8
  store ptr %0, ptr %3, align 8
  %7 = load ptr, ptr %3, align 8
  %8 = call ptr @timer_heap(ptr noundef %7)
  %9 = call ptr @heap_min(ptr noundef %8)
  store ptr %9, ptr %4, align 8
  %10 = load ptr, ptr %4, align 8
  %11 = icmp eq ptr %10, null
  br i1 %11, label %12, label %13

12:                                               ; preds = %1
  store i32 -1, ptr %2, align 4
  br label %38

13:                                               ; preds = %1
  %14 = load ptr, ptr %4, align 8
  %15 = getelementptr inbounds i8, ptr %14, i64 -104
  store ptr %15, ptr %5, align 8
  %16 = load ptr, ptr %5, align 8
  %17 = getelementptr inbounds %struct.uv_timer_s, ptr %16, i32 0, i32 10
  %18 = load i64, ptr %17, align 8
  %19 = load ptr, ptr %3, align 8
  %20 = getelementptr inbounds %struct.uv_loop_s, ptr %19, i32 0, i32 28
  %21 = load i64, ptr %20, align 8
  %22 = icmp ule i64 %18, %21
  br i1 %22, label %23, label %24

23:                                               ; preds = %13
  store i32 0, ptr %2, align 4
  br label %38

24:                                               ; preds = %13
  %25 = load ptr, ptr %5, align 8
  %26 = getelementptr inbounds %struct.uv_timer_s, ptr %25, i32 0, i32 10
  %27 = load i64, ptr %26, align 8
  %28 = load ptr, ptr %3, align 8
  %29 = getelementptr inbounds %struct.uv_loop_s, ptr %28, i32 0, i32 28
  %30 = load i64, ptr %29, align 8
  %31 = sub i64 %27, %30
  store i64 %31, ptr %6, align 8
  %32 = load i64, ptr %6, align 8
  %33 = icmp ugt i64 %32, 2147483647
  br i1 %33, label %34, label %35

34:                                               ; preds = %24
  store i64 2147483647, ptr %6, align 8
  br label %35

35:                                               ; preds = %34, %24
  %36 = load i64, ptr %6, align 8
  %37 = trunc i64 %36 to i32
  store i32 %37, ptr %2, align 4
  br label %38

38:                                               ; preds = %35, %23, %12
  %39 = load i32, ptr %2, align 4
  ret i32 %39
}