; Function Attrs: mustprogress nofree norecurse nosync nounwind willreturn memory(read, inaccessiblemem: none) uwtable
define dso_local range(i32 -1, -2147483648) i32 @uv__next_timeout(ptr noundef readonly captures(none) %0) local_unnamed_addr #4 {
  %2 = getelementptr inbounds nuw i8, ptr %0, i64 520
  %.val = load ptr, ptr %2, align 8
  %3 = icmp eq ptr %.val, null
  br i1 %3, label %12, label %4

4:                                                ; preds = %1
  %5 = getelementptr inbounds nuw i8, ptr %.val, i64 24
  %6 = load i64, ptr %5, align 8
  %7 = getelementptr inbounds nuw i8, ptr %0, i64 544
  %8 = load i64, ptr %7, align 8
  %.not = icmp ugt i64 %6, %8
  br i1 %.not, label %9, label %12

9:                                                ; preds = %4
  %10 = sub nuw i64 %6, %8
  %spec.store.select = tail call i64 @llvm.umin.i64(i64 %10, i64 2147483647)
  %11 = trunc nuw nsw i64 %spec.store.select to i32
  br label %12

12:                                               ; preds = %4, %1, %9
  %.0 = phi i32 [ %11, %9 ], [ -1, %1 ], [ 0, %4 ]
  ret i32 %.0
}